target datalayout = "e-m:e-p270:32:32-p271:32:32-p272:64:64-i64:64-i128:128-f80:128-n8:16:32:64-S128"
target triple = "x86_64-pc-linux-gnu"

%struct.sackd_node_t = type { ptr, ptr, i64, i16 }

; Function Attrs: nounwind uwtable
define internal void @_pack_node(ptr noundef %0, i16 noundef zeroext %1, ptr noundef %2) #0 {
  %4 = alloca ptr, align 8
  %5 = alloca i16, align 2
  %6 = alloca ptr, align 8
  %7 = alloca ptr, align 8
  %8 = alloca i32, align 4
  %9 = alloca i32, align 4
  store ptr %0, ptr %4, align 8
  store i16 %1, ptr %5, align 2
  store ptr %2, ptr %6, align 8
  call void @llvm.lifetime.start.p0(i64 8, ptr %7) #7
  %10 = load ptr, ptr %4, align 8
  store ptr %10, ptr %7, align 8
  %11 = load ptr, ptr %7, align 8
  %12 = getelementptr inbounds nuw %struct.sackd_node_t, ptr %11, i32 0, i32 3
  %13 = load i16, ptr %12, align 8
  %14 = load ptr, ptr %6, align 8
  call void @pack16(i16 noundef zeroext %13, ptr noundef %14)
  %15 = load ptr, ptr %7, align 8
  %16 = getelementptr inbounds nuw %struct.sackd_node_t, ptr %15, i32 0, i32 2
  %17 = load i64, ptr %16, align 8
  %18 = load ptr, ptr %6, align 8
  call void @pack64(i64 noundef %17, ptr noundef %18)
  br label %19

19:                                               ; preds = %3
  call void @llvm.lifetime.start.p0(i64 4, ptr %8) #7
  store i32 0, ptr %8, align 4
  %20 = load ptr, ptr %7, align 8
  %21 = getelementptr inbounds nuw %struct.sackd_node_t, ptr %20, i32 0, i32 0
  %22 = load ptr, ptr %21, align 8
  %23 = icmp ne ptr %22, null
  br i1 %23, label %24, label %31

24:                                               ; preds = %19
  %25 = load ptr, ptr %7, align 8
  %26 = getelementptr inbounds nuw %struct.sackd_node_t, ptr %25, i32 0, i32 0
  %27 = load ptr, ptr %26, align 8
  %28 = call i64 @strlen(ptr noundef %27) #10
  %29 = trunc i64 %28 to i32
  %30 = add i32 %29, 1
  store i32 %30, ptr %8, align 4
  br label %31

31:                                               ; preds = %24, %19
  %32 = load ptr, ptr %7, align 8
  %33 = getelementptr inbounds nuw %struct.sackd_node_t, ptr %32, i32 0, i32 0
  %34 = load ptr, ptr %33, align 8
  %35 = load i32, ptr %8, align 4
  %36 = load ptr, ptr %6, align 8
  call void @packmem(ptr noundef %34, i32 noundef %35, ptr noundef %36)
  call void @llvm.lifetime.end.p0(i64 4, ptr %8) #7
  br label %37

37:                                               ; preds = %31
  br label %38

38:                                               ; preds = %37
  br label %39

39:                                               ; preds = %38
  call void @llvm.lifetime.start.p0(i64 4, ptr %9) #7
  store i32 0, ptr %9, align 4
  %40 = load ptr, ptr %7, align 8
  %41 = getelementptr inbounds nuw %struct.sackd_node_t, ptr %40, i32 0, i32 1
  %42 = load ptr, ptr %41, align 8
  %43 = icmp ne ptr %42, null
  br i1 %43, label %44, label %51

44:                                               ; preds = %39
  %45 = load ptr, ptr %7, align 8
  %46 = getelementptr inbounds nuw %struct.sackd_node_t, ptr %45, i32 0, i32 1
  %47 = load ptr, ptr %46, align 8
  %48 = call i64 @strlen(ptr noundef %47) #10
  %49 = trunc i64 %48 to i32
  %50 = add i32 %49, 1
  store i32 %50, ptr %9, align 4
  br label %51

51:                                               ; preds = %44, %39
  %52 = load ptr, ptr %7, align 8
  %53 = getelementptr inbounds nuw %struct.sackd_node_t, ptr %52, i32 0, i32 1
  %54 = load ptr, ptr %53, align 8
  %55 = load i32, ptr %9, align 4
  %56 = load ptr, ptr %6, align 8
  call void @packmem(ptr noundef %54, i32 noundef %55, ptr noundef %56)
  call void @llvm.lifetime.end.p0(i64 4, ptr %9) #7
  br label %57

57:                                               ; preds = %51
  br label %58

58:                                               ; preds = %57
  call void @llvm.lifetime.end.p0(i64 8, ptr %7) #7
  ret void
}