; Function Attrs: nounwind uwtable
define internal void @_pack_node(ptr noundef readonly captures(none) %0, i16 zeroext %1, ptr noundef %2) #0 {
  %4 = getelementptr inbounds nuw i8, ptr %0, i64 24
  %5 = load i16, ptr %4, align 8
  tail call void @pack16(i16 noundef zeroext %5, ptr noundef %2) #7
  %6 = getelementptr inbounds nuw i8, ptr %0, i64 16
  %7 = load i64, ptr %6, align 8
  tail call void @pack64(i64 noundef %7, ptr noundef %2) #7
  %8 = load ptr, ptr %0, align 8
  %.not = icmp eq ptr %8, null
  br i1 %.not, label %13, label %9

9:                                                ; preds = %3
  %10 = tail call i64 @strlen(ptr noundef nonnull dereferenceable(1) %8) #10
  %11 = trunc i64 %10 to i32
  %12 = add i32 %11, 1
  br label %13

13:                                               ; preds = %9, %3
  %.014 = phi i32 [ %12, %9 ], [ 0, %3 ]
  tail call void @packmem(ptr noundef %8, i32 noundef %.014, ptr noundef %2) #7
  %14 = getelementptr inbounds nuw i8, ptr %0, i64 8
  %15 = load ptr, ptr %14, align 8
  %.not17 = icmp eq ptr %15, null
  br i1 %.not17, label %20, label %16

16:                                               ; preds = %13
  %17 = tail call i64 @strlen(ptr noundef nonnull dereferenceable(1) %15) #10
  %18 = trunc i64 %17 to i32
  %19 = add i32 %18, 1
  br label %20

20:                                               ; preds = %16, %13
  %.0 = phi i32 [ %19, %16 ], [ 0, %13 ]
  tail call void @packmem(ptr noundef %15, i32 noundef %.0, ptr noundef %2) #7
  ret void
}